; Function Attrs: mustprogress nounwind uwtable
define dso_local void @_ZN4llvm10SSAUpdater17UpdateDebugValuesEPNS_11InstructionERNS_15SmallVectorImplIPNS_12DbgValueInstEEE(ptr noundef nonnull align 8 dereferenceable(56) %0, ptr noundef %1, ptr noundef nonnull align 8 dereferenceable(16) %2) local_unnamed_addr #0 align 2 {
  %4 = load ptr, ptr %2, align 8
  %5 = tail call noundef i64 @_ZNK4llvm15SmallVectorBaseIjE4sizeEv(ptr noundef nonnull align 8 dereferenceable(16) %2) #14
  %6 = getelementptr inbounds ptr, ptr %4, i64 %5
  %.not10 = icmp eq i64 %5, 0
  br i1 %.not10, label %._crit_edge, label %.lr.ph

.lr.ph:                                           ; preds = %3, %_ZN4llvm10SSAUpdater16UpdateDebugValueEPNS_11InstructionEPNS_12DbgValueInstE.exit
  %.011 = phi ptr [ %35, %_ZN4llvm10SSAUpdater16UpdateDebugValueEPNS_11InstructionEPNS_12DbgValueInstE.exit ], [ %4, %3 ]
  %7 = load ptr, ptr %.011, align 8
  %8 = getelementptr inbounds i8, ptr %7, i64 40
  %9 = load ptr, ptr %8, align 8
  %10 = load ptr, ptr %0, align 8
  %11 = load ptr, ptr %10, align 8
  %12 = getelementptr inbounds nuw i8, ptr %10, i64 16
  %13 = load i32, ptr %12, align 8
  %14 = icmp eq i32 %13, 0
  br i1 %14, label %_ZNK4llvm10SSAUpdater16HasValueForBlockEPNS_10BasicBlockE.exit.i, label %15

15:                                               ; preds = %.lr.ph
  %16 = ptrtoint ptr %9 to i64
  %17 = trunc i64 %16 to i32
  %18 = lshr i32 %17, 4
  %19 = lshr i32 %17, 9
  %20 = xor i32 %18, %19
  %21 = add i32 %13, -1
  %.01618.i.i.i.i.i.i = and i32 %21, %20
  %22 = zext nneg i32 %.01618.i.i.i.i.i.i to i64
  %23 = getelementptr inbounds %"struct.llvm::detail::DenseMapPair.83", ptr %11, i64 %22
  %24 = load ptr, ptr %23, align 8
  %25 = icmp eq ptr %9, %24
  br i1 %25, label %.loopexit.i, label %.lr.ph.i.i.i.i.i.i

.lr.ph.i.i.i.i.i.i:                               ; preds = %15, %27
  %26 = phi ptr [ %32, %27 ], [ %24, %15 ]
  %.01620.i.i.i.i.i.i = phi i32 [ %.016.i.i.i.i.i.i, %27 ], [ %.01618.i.i.i.i.i.i, %15 ]
  %.01519.i.i.i.i.i.i = phi i32 [ %28, %27 ], [ 1, %15 ]
  %.not.i.i.not.i.i = icmp eq ptr %26, inttoptr (i64 -4096 to ptr)
  br i1 %.not.i.i.not.i.i, label %_ZNK4llvm10SSAUpdater16HasValueForBlockEPNS_10BasicBlockE.exit.i, label %27

27:                                               ; preds = %.lr.ph.i.i.i.i.i.i
  %28 = add i32 %.01519.i.i.i.i.i.i, 1
  %29 = add i32 %.01519.i.i.i.i.i.i, %.01620.i.i.i.i.i.i
  %.016.i.i.i.i.i.i = and i32 %29, %21
  %30 = zext i32 %.016.i.i.i.i.i.i to i64
  %31 = getelementptr inbounds %"struct.llvm::detail::DenseMapPair.83", ptr %11, i64 %30
  %32 = load ptr, ptr %31, align 8
  %33 = icmp eq ptr %9, %32
  br i1 %33, label %.loopexit.i, label %.lr.ph.i.i.i.i.i.i, !llvm.loop !6

.loopexit.i:                                      ; preds = %27, %15
  %34 = tail call noundef ptr @_ZN4llvm10SSAUpdater28GetValueAtEndOfBlockInternalEPNS_10BasicBlockE(ptr noundef nonnull align 8 dereferenceable(56) %0, ptr noundef %9)
  tail call void @_ZN4llvm20DbgVariableIntrinsic25replaceVariableLocationOpEPNS_5ValueES2_b(ptr noundef nonnull align 8 dereferenceable(88) %7, ptr noundef %1, ptr noundef %34, i1 noundef zeroext false) #14
  br label %_ZN4llvm10SSAUpdater16UpdateDebugValueEPNS_11InstructionEPNS_12DbgValueInstE.exit

_ZNK4llvm10SSAUpdater16HasValueForBlockEPNS_10BasicBlockE.exit.i: ; preds = %.lr.ph.i.i.i.i.i.i, %.lr.ph
  tail call void @_ZN4llvm20DbgVariableIntrinsic15setKillLocationEv(ptr noundef nonnull align 8 dereferenceable(88) %7)
  br label %_ZN4llvm10SSAUpdater16UpdateDebugValueEPNS_11InstructionEPNS_12DbgValueInstE.exit

_ZN4llvm10SSAUpdater16UpdateDebugValueEPNS_11InstructionEPNS_12DbgValueInstE.exit: ; preds = %.loopexit.i, %_ZNK4llvm10SSAUpdater16HasValueForBlockEPNS_10BasicBlockE.exit.i
  %35 = getelementptr inbounds i8, ptr %.011, i64 8
  %.not = icmp eq ptr %35, %6
  br i1 %.not, label %._crit_edge, label %.lr.ph

._crit_edge:                                      ; preds = %_ZN4llvm10SSAUpdater16UpdateDebugValueEPNS_11InstructionEPNS_12DbgValueInstE.exit, %3
  ret void
}